target datalayout = "e-m:e-p270:32:32-p271:32:32-p272:64:64-i64:64-i128:128-f80:128-n8:16:32:64-S128"
target triple = "x86_64-pc-linux-gnu"

%struct.PROCLOCKTAG = type { ptr, ptr }
%struct.LOCK = type { %struct.LOCKTAG, i32, i32, %struct.dlist_head, %struct.dclist_head, [10 x i32], i32, [10 x i32], i32 }
%struct.LOCKTAG = type { i32, i32, i32, i16, i8, i8 }
%struct.dlist_head = type { %struct.dlist_node }
%struct.dlist_node = type { ptr, ptr }
%struct.dclist_head = type { %struct.dlist_head, i32 }
%struct.LockMethodData = type { i32, ptr, ptr, ptr }
%struct.LOCALLOCKTAG = type { %struct.LOCKTAG, i32 }
%struct.LOCALLOCK = type { %struct.LOCALLOCKTAG, i32, ptr, ptr, i64, i32, i32, ptr, i8, i8 }
%union.LWLockPadded = type { %struct.LWLock, [112 x i8] }
%struct.LWLock = type { i16, %struct.pg_atomic_uint32, %struct.proclist_head }
%struct.pg_atomic_uint32 = type { i32 }
%struct.proclist_head = type { i32, i32 }
%struct.PROCLOCK = type { %struct.PROCLOCKTAG, ptr, i32, i32, %struct.dlist_node, %struct.dlist_node }

@LockMethodLocalHash = internal global ptr null, align 8
@LockMethods = internal constant [3 x ptr] [ptr null, ptr @default_lockmethod, ptr @user_lockmethod], align 16
@.str.4 = private unnamed_addr constant [29 x i8] c"unrecognized lock method: %d\00", align 1
@.str.5 = private unnamed_addr constant [7 x i8] c"lock.c\00", align 1
@__func__.LockHasWaiters = private unnamed_addr constant [15 x i8] c"LockHasWaiters\00", align 1
@.str.6 = private unnamed_addr constant [27 x i8] c"unrecognized lock mode: %d\00", align 1
@.str.7 = private unnamed_addr constant [32 x i8] c"you don't own a lock of type %s\00", align 1
@MainLWLockArray = external global ptr, align 8

; Function Attrs: nounwind uwtable
define dso_local zeroext i1 @LockHasWaiters(ptr noundef %0, i32 noundef %1, i1 noundef zeroext %2) #0 {
  %4 = alloca i1, align 1
  %5 = alloca ptr, align 8
  %6 = alloca i32, align 4
  %7 = alloca i8, align 1
  %8 = alloca i16, align 2
  %9 = alloca ptr, align 8
  %10 = alloca %struct.LOCALLOCKTAG, align 4
  %11 = alloca ptr, align 8
  %12 = alloca ptr, align 8
  %13 = alloca ptr, align 8
  %14 = alloca ptr, align 8
  %15 = alloca i8, align 1
  %16 = alloca ptr, align 8
  %17 = alloca i32, align 4
  %18 = alloca i64, align 8
  %19 = alloca ptr, align 8
  %20 = alloca ptr, align 8
  %21 = alloca i32, align 4
  store ptr %0, ptr %5, align 8
  store i32 %1, ptr %6, align 4
  %22 = zext i1 %2 to i8
  store i8 %22, ptr %7, align 1
  call void @llvm.lifetime.start.p0(i64 2, ptr %8) #9
  %23 = load ptr, ptr %5, align 8
  %24 = getelementptr inbounds nuw %struct.LOCKTAG, ptr %23, i32 0, i32 5
  %25 = load i8, ptr %24, align 1
  %26 = zext i8 %25 to i16
  store i16 %26, ptr %8, align 2
  call void @llvm.lifetime.start.p0(i64 8, ptr %9) #9
  call void @llvm.lifetime.start.p0(i64 20, ptr %10) #9
  call void @llvm.lifetime.start.p0(i64 8, ptr %11) #9
  call void @llvm.lifetime.start.p0(i64 8, ptr %12) #9
  call void @llvm.lifetime.start.p0(i64 8, ptr %13) #9
  call void @llvm.lifetime.start.p0(i64 8, ptr %14) #9
  call void @llvm.lifetime.start.p0(i64 1, ptr %15) #9
  store i8 0, ptr %15, align 1
  %27 = load i16, ptr %8, align 2
  %28 = zext i16 %27 to i32
  %29 = icmp sle i32 %28, 0
  br i1 %29, label %34, label %30

30:                                               ; preds = %3
  %31 = load i16, ptr %8, align 2
  %32 = zext i16 %31 to i64
  %33 = icmp uge i64 %32, 3
  br i1 %33, label %34, label %47

34:                                               ; preds = %30, %3
  br label %35

35:                                               ; preds = %34
  br i1 true, label %36, label %38

36:                                               ; preds = %35
  %37 = call zeroext i1 @errstart_cold(i32 noundef 21, ptr noundef null) #10
  br i1 %37, label %40, label %44

38:                                               ; preds = %35
  %39 = call zeroext i1 @errstart(i32 noundef 21, ptr noundef null)
  br i1 %39, label %40, label %44

40:                                               ; preds = %38, %36
  %41 = load i16, ptr %8, align 2
  %42 = zext i16 %41 to i32
  %43 = call i32 (ptr, ...) @errmsg_internal(ptr noundef @.str.4, i32 noundef %42)
  call void @errfinish(ptr noundef @.str.5, i32 noundef 702, ptr noundef @__func__.LockHasWaiters)
  br label %44

44:                                               ; preds = %40, %38, %36
  unreachable

45:                                               ; No predecessors!
  br label %46

46:                                               ; preds = %45
  br label %47

47:                                               ; preds = %46, %30
  %48 = load i16, ptr %8, align 2
  %49 = zext i16 %48 to i64
  %50 = getelementptr inbounds nuw [3 x ptr], ptr @LockMethods, i64 0, i64 %49
  %51 = load ptr, ptr %50, align 8
  store ptr %51, ptr %9, align 8
  %52 = load i32, ptr %6, align 4
  %53 = icmp sle i32 %52, 0
  br i1 %53, label %60, label %54

54:                                               ; preds = %47
  %55 = load i32, ptr %6, align 4
  %56 = load ptr, ptr %9, align 8
  %57 = getelementptr inbounds nuw %struct.LockMethodData, ptr %56, i32 0, i32 0
  %58 = load i32, ptr %57, align 8
  %59 = icmp sgt i32 %55, %58
  br i1 %59, label %60, label %72

60:                                               ; preds = %54, %47
  br label %61

61:                                               ; preds = %60
  br i1 true, label %62, label %64

62:                                               ; preds = %61
  %63 = call zeroext i1 @errstart_cold(i32 noundef 21, ptr noundef null) #10
  br i1 %63, label %66, label %69

64:                                               ; preds = %61
  %65 = call zeroext i1 @errstart(i32 noundef 21, ptr noundef null)
  br i1 %65, label %66, label %69

66:                                               ; preds = %64, %62
  %67 = load i32, ptr %6, align 4
  %68 = call i32 (ptr, ...) @errmsg_internal(ptr noundef @.str.6, i32 noundef %67)
  call void @errfinish(ptr noundef @.str.5, i32 noundef 705, ptr noundef @__func__.LockHasWaiters)
  br label %69

69:                                               ; preds = %66, %64, %62
  unreachable

70:                                               ; No predecessors!
  br label %71

71:                                               ; preds = %70
  br label %72

72:                                               ; preds = %71, %54
  br label %73

73:                                               ; preds = %72
  call void @llvm.lifetime.start.p0(i64 8, ptr %16) #9
  store ptr %10, ptr %16, align 8
  call void @llvm.lifetime.start.p0(i64 4, ptr %17) #9
  store i32 0, ptr %17, align 4
  call void @llvm.lifetime.start.p0(i64 8, ptr %18) #9
  store i64 20, ptr %18, align 8
  %74 = load ptr, ptr %16, align 8
  %75 = ptrtoint ptr %74 to i64
  %76 = and i64 %75, 7
  %77 = icmp eq i64 %76, 0
  br i1 %77, label %78, label %101

78:                                               ; preds = %73
  %79 = load i64, ptr %18, align 8
  %80 = and i64 %79, 7
  %81 = icmp eq i64 %80, 0
  br i1 %81, label %82, label %101

82:                                               ; preds = %78
  %83 = load i32, ptr %17, align 4
  %84 = icmp eq i32 %83, 0
  br i1 %84, label %85, label %101

85:                                               ; preds = %82
  %86 = load i64, ptr %18, align 8
  %87 = icmp ule i64 %86, 1024
  br i1 %87, label %88, label %101

88:                                               ; preds = %85
  call void @llvm.lifetime.start.p0(i64 8, ptr %19) #9
  %89 = load ptr, ptr %16, align 8
  store ptr %89, ptr %19, align 8
  call void @llvm.lifetime.start.p0(i64 8, ptr %20) #9
  %90 = load ptr, ptr %19, align 8
  %91 = load i64, ptr %18, align 8
  %92 = getelementptr inbounds nuw i8, ptr %90, i64 %91
  store ptr %92, ptr %20, align 8
  br label %93

93:                                               ; preds = %97, %88
  %94 = load ptr, ptr %19, align 8
  %95 = load ptr, ptr %20, align 8
  %96 = icmp ult ptr %94, %95
  br i1 %96, label %97, label %100

97:                                               ; preds = %93
  %98 = load ptr, ptr %19, align 8
  %99 = getelementptr inbounds nuw i64, ptr %98, i32 1
  store ptr %99, ptr %19, align 8
  store i64 0, ptr %98, align 8
  br label %93, !llvm.loop !10

100:                                              ; preds = %93
  call void @llvm.lifetime.end.p0(i64 8, ptr %20) #9
  call void @llvm.lifetime.end.p0(i64 8, ptr %19) #9
  br label %106

101:                                              ; preds = %85, %82, %78, %73
  %102 = load ptr, ptr %16, align 8
  %103 = load i32, ptr %17, align 4
  %104 = trunc i32 %103 to i8
  %105 = load i64, ptr %18, align 8
  call void @llvm.memset.p0.i64(ptr align 1 %102, i8 %104, i64 %105, i1 false)
  br label %106

106:                                              ; preds = %101, %100
  call void @llvm.lifetime.end.p0(i64 8, ptr %18) #9
  call void @llvm.lifetime.end.p0(i64 4, ptr %17) #9
  call void @llvm.lifetime.end.p0(i64 8, ptr %16) #9
  br label %107

107:                                              ; preds = %106
  br label %108

108:                                              ; preds = %107
  %109 = getelementptr inbounds nuw %struct.LOCALLOCKTAG, ptr %10, i32 0, i32 0
  %110 = load ptr, ptr %5, align 8
  call void @llvm.memcpy.p0.p0.i64(ptr align 4 %109, ptr align 4 %110, i64 16, i1 false)
  %111 = load i32, ptr %6, align 4
  %112 = getelementptr inbounds nuw %struct.LOCALLOCKTAG, ptr %10, i32 0, i32 1
  store i32 %111, ptr %112, align 4
  %113 = load ptr, ptr @LockMethodLocalHash, align 8
  %114 = call ptr @hash_search(ptr noundef %113, ptr noundef %10, i32 noundef 0, ptr noundef null)
  store ptr %114, ptr %11, align 8
  %115 = load ptr, ptr %11, align 8
  %116 = icmp ne ptr %115, null
  br i1 %116, label %117, label %122

117:                                              ; preds = %108
  %118 = load ptr, ptr %11, align 8
  %119 = getelementptr inbounds nuw %struct.LOCALLOCK, ptr %118, i32 0, i32 4
  %120 = load i64, ptr %119, align 8
  %121 = icmp sle i64 %120, 0
  br i1 %121, label %122, label %140

122:                                              ; preds = %117, %108
  br label %123

123:                                              ; preds = %122
  br i1 false, label %124, label %126

124:                                              ; preds = %123
  %125 = call zeroext i1 @errstart_cold(i32 noundef 19, ptr noundef null) #10
  br i1 %125, label %128, label %137

126:                                              ; preds = %123
  %127 = call zeroext i1 @errstart(i32 noundef 19, ptr noundef null)
  br i1 %127, label %128, label %137

128:                                              ; preds = %126, %124
  %129 = load ptr, ptr %9, align 8
  %130 = getelementptr inbounds nuw %struct.LockMethodData, ptr %129, i32 0, i32 2
  %131 = load ptr, ptr %130, align 8
  %132 = load i32, ptr %6, align 4
  %133 = sext i32 %132 to i64
  %134 = getelementptr inbounds ptr, ptr %131, i64 %133
  %135 = load ptr, ptr %134, align 8
  %136 = call i32 (ptr, ...) @errmsg_internal(ptr noundef @.str.7, ptr noundef %135)
  call void @errfinish(ptr noundef @.str.5, i32 noundef 731, ptr noundef @__func__.LockHasWaiters)
  br label %137

137:                                              ; preds = %128, %126, %124
  br label %138

138:                                              ; preds = %137
  br label %139

139:                                              ; preds = %138
  store i1 false, ptr %4, align 1
  store i32 1, ptr %21, align 4
  br label %202

140:                                              ; preds = %117
  %141 = load ptr, ptr @MainLWLockArray, align 8
  %142 = load ptr, ptr %11, align 8
  %143 = getelementptr inbounds nuw %struct.LOCALLOCK, ptr %142, i32 0, i32 1
  %144 = load i32, ptr %143, align 4
  %145 = urem i32 %144, 16
  %146 = add i32 181, %145
  %147 = zext i32 %146 to i64
  %148 = getelementptr inbounds nuw %union.LWLockPadded, ptr %141, i64 %147
  store ptr %148, ptr %14, align 8
  %149 = load ptr, ptr %14, align 8
  %150 = call zeroext i1 @LWLockAcquire(ptr noundef %149, i32 noundef 1)
  %151 = load ptr, ptr %11, align 8
  %152 = getelementptr inbounds nuw %struct.LOCALLOCK, ptr %151, i32 0, i32 2
  %153 = load ptr, ptr %152, align 8
  store ptr %153, ptr %12, align 8
  %154 = load ptr, ptr %11, align 8
  %155 = getelementptr inbounds nuw %struct.LOCALLOCK, ptr %154, i32 0, i32 3
  %156 = load ptr, ptr %155, align 8
  store ptr %156, ptr %13, align 8
  %157 = load ptr, ptr %13, align 8
  %158 = getelementptr inbounds nuw %struct.PROCLOCK, ptr %157, i32 0, i32 2
  %159 = load i32, ptr %158, align 8
  %160 = load i32, ptr %6, align 4
  %161 = shl i32 1, %160
  %162 = and i32 %159, %161
  %163 = icmp ne i32 %162, 0
  br i1 %163, label %184, label %164

164:                                              ; preds = %140
  %165 = load ptr, ptr %14, align 8
  call void @LWLockRelease(ptr noundef %165)
  br label %166

166:                                              ; preds = %164
  br i1 false, label %167, label %169

167:                                              ; preds = %166
  %168 = call zeroext i1 @errstart_cold(i32 noundef 19, ptr noundef null) #10
  br i1 %168, label %171, label %180

169:                                              ; preds = %166
  %170 = call zeroext i1 @errstart(i32 noundef 19, ptr noundef null)
  br i1 %170, label %171, label %180

171:                                              ; preds = %169, %167
  %172 = load ptr, ptr %9, align 8
  %173 = getelementptr inbounds nuw %struct.LockMethodData, ptr %172, i32 0, i32 2
  %174 = load ptr, ptr %173, align 8
  %175 = load i32, ptr %6, align 4
  %176 = sext i32 %175 to i64
  %177 = getelementptr inbounds ptr, ptr %174, i64 %176
  %178 = load ptr, ptr %177, align 8
  %179 = call i32 (ptr, ...) @errmsg_internal(ptr noundef @.str.7, ptr noundef %178)
  call void @errfinish(ptr noundef @.str.5, i32 noundef 761, ptr noundef @__func__.LockHasWaiters)
  br label %180

180:                                              ; preds = %171, %169, %167
  br label %181

181:                                              ; preds = %180
  br label %182

182:                                              ; preds = %181
  %183 = load ptr, ptr %11, align 8
  call void @RemoveLocalLock(ptr noundef %183)
  store i1 false, ptr %4, align 1
  store i32 1, ptr %21, align 4
  br label %202

184:                                              ; preds = %140
  %185 = load ptr, ptr %9, align 8
  %186 = getelementptr inbounds nuw %struct.LockMethodData, ptr %185, i32 0, i32 1
  %187 = load ptr, ptr %186, align 8
  %188 = load i32, ptr %6, align 4
  %189 = sext i32 %188 to i64
  %190 = getelementptr inbounds i32, ptr %187, i64 %189
  %191 = load i32, ptr %190, align 4
  %192 = load ptr, ptr %12, align 8
  %193 = getelementptr inbounds nuw %struct.LOCK, ptr %192, i32 0, i32 2
  %194 = load i32, ptr %193, align 4
  %195 = and i32 %191, %194
  %196 = icmp ne i32 %195, 0
  br i1 %196, label %197, label %198

197:                                              ; preds = %184
  store i8 1, ptr %15, align 1
  br label %198

198:                                              ; preds = %197, %184
  %199 = load ptr, ptr %14, align 8
  call void @LWLockRelease(ptr noundef %199)
  %200 = load i8, ptr %15, align 1, !range !4, !noundef !5
  %201 = trunc i8 %200 to i1
  store i1 %201, ptr %4, align 1
  store i32 1, ptr %21, align 4
  br label %202

202:                                              ; preds = %198, %182, %139
  call void @llvm.lifetime.end.p0(i64 1, ptr %15) #9
  call void @llvm.lifetime.end.p0(i64 8, ptr %14) #9
  call void @llvm.lifetime.end.p0(i64 8, ptr %13) #9
  call void @llvm.lifetime.end.p0(i64 8, ptr %12) #9
  call void @llvm.lifetime.end.p0(i64 8, ptr %11) #9
  call void @llvm.lifetime.end.p0(i64 20, ptr %10) #9
  call void @llvm.lifetime.end.p0(i64 8, ptr %9) #9
  call void @llvm.lifetime.end.p0(i64 2, ptr %8) #9
  %203 = load i1, ptr %4, align 1
  ret i1 %203
}