; Function Attrs: nounwind uwtable
define dso_local zeroext i1 @LockHasWaiters(ptr noundef readonly captures(none) %0, i32 noundef %1, i1 noundef zeroext %2) local_unnamed_addr #0 {
  %4 = alloca %struct.LOCALLOCKTAG, align 4
  %5 = getelementptr inbounds nuw i8, ptr %0, i64 15
  %6 = load i8, ptr %5, align 1
  call void @llvm.lifetime.start.p0(i64 20, ptr nonnull %4) #17
  %7 = add i8 %6, -3
  %or.cond = icmp ult i8 %7, -2
  br i1 %or.cond, label %8, label %12

8:                                                ; preds = %3
  %9 = zext i8 %6 to i32
  %10 = tail call zeroext i1 @errstart_cold(i32 noundef 21, ptr noundef null) #18
  tail call void @llvm.assume(i1 %10)
  %11 = tail call i32 (ptr, ...) @errmsg_internal(ptr noundef nonnull @.str.4, i32 noundef %9) #17
  tail call void @errfinish(ptr noundef nonnull @.str.5, i32 noundef 702, ptr noundef nonnull @__func__.LockHasWaiters) #17
  unreachable

12:                                               ; preds = %3
  %13 = zext nneg i8 %6 to i64
  %14 = getelementptr inbounds nuw [3 x ptr], ptr @LockMethods, i64 0, i64 %13
  %15 = load ptr, ptr %14, align 8
  %16 = icmp slt i32 %1, 1
  br i1 %16, label %20, label %17

17:                                               ; preds = %12
  %18 = load i32, ptr %15, align 8
  %19 = icmp sgt i32 %1, %18
  br i1 %19, label %20, label %23

20:                                               ; preds = %17, %12
  %21 = tail call zeroext i1 @errstart_cold(i32 noundef 21, ptr noundef null) #18
  tail call void @llvm.assume(i1 %21)
  %22 = tail call i32 (ptr, ...) @errmsg_internal(ptr noundef nonnull @.str.6, i32 noundef %1) #17
  tail call void @errfinish(ptr noundef nonnull @.str.5, i32 noundef 705, ptr noundef nonnull @__func__.LockHasWaiters) #17
  unreachable

23:                                               ; preds = %17
  call void @llvm.memcpy.p0.p0.i64(ptr noundef nonnull align 4 dereferenceable(16) %4, ptr noundef nonnull align 4 dereferenceable(16) %0, i64 16, i1 false)
  %24 = getelementptr inbounds nuw i8, ptr %4, i64 16
  store i32 %1, ptr %24, align 4
  %25 = load ptr, ptr @LockMethodLocalHash, align 8
  %26 = call ptr @hash_search(ptr noundef %25, ptr noundef nonnull %4, i32 noundef 0, ptr noundef null) #17
  %.not = icmp eq ptr %26, null
  br i1 %.not, label %31, label %27

27:                                               ; preds = %23
  %28 = getelementptr inbounds nuw i8, ptr %26, i64 40
  %29 = load i64, ptr %28, align 8
  %30 = icmp slt i64 %29, 1
  br i1 %30, label %31, label %40

31:                                               ; preds = %27, %23
  %32 = call zeroext i1 @errstart(i32 noundef 19, ptr noundef null) #17
  br i1 %32, label %33, label %76

33:                                               ; preds = %31
  %34 = getelementptr inbounds nuw i8, ptr %15, i64 16
  %35 = load ptr, ptr %34, align 8
  %36 = zext nneg i32 %1 to i64
  %37 = getelementptr inbounds nuw ptr, ptr %35, i64 %36
  %38 = load ptr, ptr %37, align 8
  %39 = call i32 (ptr, ...) @errmsg_internal(ptr noundef nonnull @.str.7, ptr noundef %38) #17
  call void @errfinish(ptr noundef nonnull @.str.5, i32 noundef 731, ptr noundef nonnull @__func__.LockHasWaiters) #17
  br label %76

40:                                               ; preds = %27
  %41 = load ptr, ptr @MainLWLockArray, align 8
  %42 = getelementptr inbounds nuw i8, ptr %26, i64 20
  %43 = load i32, ptr %42, align 4
  %44 = and i32 %43, 15
  %45 = zext nneg i32 %44 to i64
  %46 = getelementptr inbounds nuw %union.LWLockPadded, ptr %41, i64 %45
  %47 = getelementptr inbounds nuw i8, ptr %46, i64 23168
  %48 = call zeroext i1 @LWLockAcquire(ptr noundef nonnull %47, i32 noundef 1) #17
  %49 = getelementptr inbounds nuw i8, ptr %26, i64 32
  %50 = load ptr, ptr %49, align 8
  %51 = getelementptr inbounds nuw i8, ptr %50, i64 24
  %52 = load i32, ptr %51, align 8
  %53 = shl nuw i32 1, %1
  %54 = and i32 %52, %53
  %.not54 = icmp eq i32 %54, 0
  br i1 %.not54, label %55, label %65

55:                                               ; preds = %40
  call void @LWLockRelease(ptr noundef nonnull %47) #17
  %56 = call zeroext i1 @errstart(i32 noundef 19, ptr noundef null) #17
  br i1 %56, label %57, label %64

57:                                               ; preds = %55
  %58 = getelementptr inbounds nuw i8, ptr %15, i64 16
  %59 = load ptr, ptr %58, align 8
  %60 = zext nneg i32 %1 to i64
  %61 = getelementptr inbounds nuw ptr, ptr %59, i64 %60
  %62 = load ptr, ptr %61, align 8
  %63 = call i32 (ptr, ...) @errmsg_internal(ptr noundef nonnull @.str.7, ptr noundef %62) #17
  call void @errfinish(ptr noundef nonnull @.str.5, i32 noundef 761, ptr noundef nonnull @__func__.LockHasWaiters) #17
  br label %64

64:                                               ; preds = %57, %55
  call fastcc void @RemoveLocalLock(ptr noundef nonnull %26)
  br label %76

65:                                               ; preds = %40
  %66 = getelementptr inbounds nuw i8, ptr %26, i64 24
  %67 = load ptr, ptr %66, align 8
  %68 = getelementptr inbounds nuw i8, ptr %15, i64 8
  %69 = load ptr, ptr %68, align 8
  %70 = zext nneg i32 %1 to i64
  %71 = getelementptr inbounds nuw i32, ptr %69, i64 %70
  %72 = load i32, ptr %71, align 4
  %73 = getelementptr inbounds nuw i8, ptr %67, i64 20
  %74 = load i32, ptr %73, align 4
  %75 = and i32 %74, %72
  %.not55 = icmp ne i32 %75, 0
  call void @LWLockRelease(ptr noundef nonnull %47) #17
  br label %76

76:                                               ; preds = %31, %33, %65, %64
  %.0 = phi i1 [ %.not55, %65 ], [ false, %64 ], [ false, %33 ], [ false, %31 ]
  call void @llvm.lifetime.end.p0(i64 20, ptr nonnull %4) #17
  ret i1 %.0
}